target datalayout = "e-m:e-p270:32:32-p271:32:32-p272:64:64-i64:64-i128:128-f80:128-n8:16:32:64-S128"
target triple = "x86_64-pc-linux-gnu"

%struct.elist = type { ptr, i64 }

; Function Attrs: nounwind uwtable
define void @zapinlist(ptr noundef %0, ptr noundef %1) #0 {
  %3 = alloca ptr, align 8
  %4 = alloca ptr, align 8
  %5 = alloca i64, align 8
  %6 = alloca i32, align 4
  store ptr %0, ptr %3, align 8, !tbaa !47
  store ptr %1, ptr %4, align 8, !tbaa !19
  call void @llvm.lifetime.start.p0(i64 8, ptr %5) #11
  store i64 0, ptr %5, align 8, !tbaa !44
  br label %7

7:                                                ; preds = %49, %2
  %8 = load i64, ptr %5, align 8, !tbaa !44
  %9 = load ptr, ptr %3, align 8, !tbaa !47
  %10 = getelementptr inbounds nuw %struct.elist, ptr %9, i32 0, i32 1
  %11 = load i64, ptr %10, align 8, !tbaa !14
  %12 = icmp ult i64 %8, %11
  br i1 %12, label %14, label %13

13:                                               ; preds = %7
  store i32 2, ptr %6, align 4
  br label %52

14:                                               ; preds = %7
  %15 = load ptr, ptr %3, align 8, !tbaa !47
  %16 = getelementptr inbounds nuw %struct.elist, ptr %15, i32 0, i32 0
  %17 = load ptr, ptr %16, align 8, !tbaa !18
  %18 = load i64, ptr %5, align 8, !tbaa !44
  %19 = getelementptr inbounds nuw ptr, ptr %17, i64 %18
  %20 = load ptr, ptr %19, align 8, !tbaa !19
  %21 = load ptr, ptr %4, align 8, !tbaa !19
  %22 = icmp eq ptr %20, %21
  br i1 %22, label %23, label %48

23:                                               ; preds = %14
  %24 = load ptr, ptr %3, align 8, !tbaa !47
  %25 = getelementptr inbounds nuw %struct.elist, ptr %24, i32 0, i32 1
  %26 = load i64, ptr %25, align 8, !tbaa !14
  %27 = add i64 %26, -1
  store i64 %27, ptr %25, align 8, !tbaa !14
  %28 = load ptr, ptr %3, align 8, !tbaa !47
  %29 = getelementptr inbounds nuw %struct.elist, ptr %28, i32 0, i32 0
  %30 = load ptr, ptr %29, align 8, !tbaa !18
  %31 = load ptr, ptr %3, align 8, !tbaa !47
  %32 = getelementptr inbounds nuw %struct.elist, ptr %31, i32 0, i32 1
  %33 = load i64, ptr %32, align 8, !tbaa !14
  %34 = getelementptr inbounds nuw ptr, ptr %30, i64 %33
  %35 = load ptr, ptr %34, align 8, !tbaa !19
  %36 = load ptr, ptr %3, align 8, !tbaa !47
  %37 = getelementptr inbounds nuw %struct.elist, ptr %36, i32 0, i32 0
  %38 = load ptr, ptr %37, align 8, !tbaa !18
  %39 = load i64, ptr %5, align 8, !tbaa !44
  %40 = getelementptr inbounds nuw ptr, ptr %38, i64 %39
  store ptr %35, ptr %40, align 8, !tbaa !19
  %41 = load ptr, ptr %3, align 8, !tbaa !47
  %42 = getelementptr inbounds nuw %struct.elist, ptr %41, i32 0, i32 0
  %43 = load ptr, ptr %42, align 8, !tbaa !18
  %44 = load ptr, ptr %3, align 8, !tbaa !47
  %45 = getelementptr inbounds nuw %struct.elist, ptr %44, i32 0, i32 1
  %46 = load i64, ptr %45, align 8, !tbaa !14
  %47 = getelementptr inbounds nuw ptr, ptr %43, i64 %46
  store ptr null, ptr %47, align 8, !tbaa !19
  store i32 2, ptr %6, align 4
  br label %52

48:                                               ; preds = %14
  br label %49

49:                                               ; preds = %48
  %50 = load i64, ptr %5, align 8, !tbaa !44
  %51 = add i64 %50, 1
  store i64 %51, ptr %5, align 8, !tbaa !44
  br label %7, !llvm.loop !49

52:                                               ; preds = %23, %13
  call void @llvm.lifetime.end.p0(i64 8, ptr %5) #11
  br label %53

53:                                               ; preds = %52
  ret void
}