; Function Attrs: nofree norecurse nosync nounwind memory(readwrite, inaccessiblemem: none) uwtable
define void @zapinlist(ptr noundef captures(none) %0, ptr noundef readnone captures(address) %1) local_unnamed_addr #2 {
  %3 = getelementptr inbounds nuw i8, ptr %0, i64 8
  %4 = load i64, ptr %3, align 8, !tbaa !41
  %.not = icmp eq i64 %4, 0
  br i1 %.not, label %.loopexit, label %.lr.ph

.lr.ph:                                           ; preds = %2
  %5 = load ptr, ptr %0, align 8, !tbaa !42
  br label %6

6:                                                ; preds = %.lr.ph, %15
  %.018 = phi i64 [ 0, %.lr.ph ], [ %16, %15 ]
  %7 = getelementptr inbounds nuw ptr, ptr %5, i64 %.018
  %8 = load ptr, ptr %7, align 8, !tbaa !12
  %9 = icmp eq ptr %8, %1
  br i1 %9, label %10, label %15

10:                                               ; preds = %6
  %11 = getelementptr inbounds nuw ptr, ptr %5, i64 %.018
  %12 = add i64 %4, -1
  store i64 %12, ptr %3, align 8, !tbaa !41
  %13 = getelementptr inbounds nuw ptr, ptr %5, i64 %12
  %14 = load ptr, ptr %13, align 8, !tbaa !12
  store ptr %14, ptr %11, align 8, !tbaa !12
  store ptr null, ptr %13, align 8, !tbaa !12
  br label %.loopexit

15:                                               ; preds = %6
  %16 = add nuw i64 %.018, 1
  %exitcond.not = icmp eq i64 %16, %4
  br i1 %exitcond.not, label %.loopexit, label %6, !llvm.loop !43

.loopexit:                                        ; preds = %15, %2, %10
  ret void
}